ccopy_reg
_reconstructor
p0
(csklearn.linear_model.base
LinearRegression
p1
c__builtin__
object
p2
Ntp3
Rp4
(dp5
S'normalize'
p6
I00
sS'n_jobs'
p7
I-1
sS'rank_'
p8
I4
sS'fit_intercept'
p9
I01
sS'_residues'
p10
cnumpy.core.multiarray
scalar
p11
(cnumpy
dtype
p12
(S'f8'
p13
I0
I1
tp14
Rp15
(I3
S'<'
p16
NNNI-1
I-1
I0
tp17
bS'F\x84\x96\xb7\x8b\x0fKA'
p18
tp19
Rp20
sS'coef_'
p21
cnumpy.core.multiarray
_reconstruct
p22
(cnumpy
ndarray
p23
(I0
tp24
S'b'
p25
tp26
Rp27
(I1
(L4L
tp28
g15
I00
S'\xdf\x8c\xf0}\x85\xabm@\xfa\x7f\xf2\x94 \x9c\xf1\xbf\x98k\xdc\xa1p\x90\xc9\xbf\xf7\x06\xc8%\xfb\xc2\x06\xc0'
p29
tp30
bsS'copy_X'
p31
I01
sS'intercept_'
p32
g11
(g15
S'\xc4\xd9l\xe4\xdd\x12y@'
p33
tp34
Rp35
sS'singular_'
p36
g22
(g23
(I0
tp37
g25
tp38
Rp39
(I1
(L4L
tp40
g15
I00
S"v\xdb=Xi\x1cR@O\xc7\xc2M&xM@W\x9d\xb3i\xac\xf1@@\xef&\x8f\x88'$7@"
p41
tp42
bsb.